target datalayout = "e-m:e-p270:32:32-p271:32:32-p272:64:64-i64:64-i128:128-f80:128-n8:16:32:64-S128"
target triple = "x86_64-pc-linux-gnu"

%union.RTLIL_FRONTEND_YYSTYPE = type { ptr }

@stderr = external global ptr, align 8
@.str.10 = private unnamed_addr constant [2 x i8] c"\0A\00", align 1
@.str.39 = private unnamed_addr constant [8 x i8] c"%s %s (\00", align 1
@.str.40 = private unnamed_addr constant [6 x i8] c"token\00", align 1
@.str.41 = private unnamed_addr constant [6 x i8] c"nterm\00", align 1
@.str.42 = private unnamed_addr constant [2 x i8] c")\00", align 1
@.str.137 = private unnamed_addr constant [38 x i8] c"Reducing stack by rule %d (line %d):\0A\00", align 1
@.str.138 = private unnamed_addr constant [10 x i8] c"   $%d = \00", align 1

; Function Attrs: mustprogress nounwind uwtable
define internal void @_ZL21yy_symbol_value_printP8_IO_FILE15yysymbol_kind_tPK22RTLIL_FRONTEND_YYSTYPE(ptr noundef %0, i32 noundef %1, ptr noundef %2) #4 {
  %4 = alloca ptr, align 8
  %5 = alloca i32, align 4
  %6 = alloca ptr, align 8
  %7 = alloca ptr, align 8
  %8 = alloca i32, align 4
  store ptr %0, ptr %4, align 8, !tbaa !34
  store i32 %1, ptr %5, align 4, !tbaa !32
  store ptr %2, ptr %6, align 8, !tbaa !30
  call void @llvm.lifetime.start.p0(i64 8, ptr %7) #3
  %9 = load ptr, ptr %4, align 8, !tbaa !34
  store ptr %9, ptr %7, align 8, !tbaa !34
  %10 = load ptr, ptr %6, align 8, !tbaa !30
  %11 = icmp ne ptr %10, null
  br i1 %11, label %13, label %12

12:                                               ; preds = %3
  store i32 1, ptr %8, align 4
  br label %14

13:                                               ; preds = %3
  store i32 0, ptr %8, align 4
  br label %14

14:                                               ; preds = %13, %12
  call void @llvm.lifetime.end.p0(i64 8, ptr %7) #3
  %15 = load i32, ptr %8, align 4
  switch i32 %15, label %17 [
    i32 0, label %16
    i32 1, label %16
  ]

16:                                               ; preds = %14, %14
  ret void

17:                                               ; preds = %14
  unreachable
}

; Function Attrs: mustprogress nounwind uwtable
define internal noundef ptr @_ZL13yysymbol_name15yysymbol_kind_t(i32 noundef %0) #4 {
  %2 = alloca i32, align 4
  store i32 %0, ptr %2, align 4, !tbaa !32
  %3 = load i32, ptr %2, align 4, !tbaa !32
  %4 = sext i32 %3 to i64
  %5 = getelementptr inbounds [95 x ptr], ptr @_ZL7yytname, i64 0, i64 %4
  %6 = load ptr, ptr %5, align 8, !tbaa !28
  ret ptr %6
}

; Function Attrs: mustprogress uwtable
define internal void @_ZL15yy_symbol_printP8_IO_FILE15yysymbol_kind_tPK22RTLIL_FRONTEND_YYSTYPE(ptr noundef %0, i32 noundef %1, ptr noundef %2) #6 {
  %4 = alloca ptr, align 8
  %5 = alloca i32, align 4
  %6 = alloca ptr, align 8
  store ptr %0, ptr %4, align 8, !tbaa !34
  store i32 %1, ptr %5, align 4, !tbaa !32
  store ptr %2, ptr %6, align 8, !tbaa !30
  %7 = load ptr, ptr %4, align 8, !tbaa !34
  %8 = load i32, ptr %5, align 4, !tbaa !32
  %9 = icmp slt i32 %8, 48
  br i1 %9, label %10, label %11

10:                                               ; preds = %3
  br label %12

11:                                               ; preds = %3
  br label %12

12:                                               ; preds = %11, %10
  %13 = phi ptr [ @.str.40, %10 ], [ @.str.41, %11 ]
  %14 = getelementptr inbounds [6 x i8], ptr %13, i64 0, i64 0
  %15 = load i32, ptr %5, align 4, !tbaa !32
  %16 = call noundef ptr @_ZL13yysymbol_name15yysymbol_kind_t(i32 noundef %15)
  %17 = call i32 (ptr, ptr, ...) @fprintf(ptr noundef %7, ptr noundef @.str.39, ptr noundef %14, ptr noundef %16) #3
  %18 = load ptr, ptr %4, align 8, !tbaa !34
  %19 = load i32, ptr %5, align 4, !tbaa !32
  %20 = load ptr, ptr %6, align 8, !tbaa !30
  call void @_ZL21yy_symbol_value_printP8_IO_FILE15yysymbol_kind_tPK22RTLIL_FRONTEND_YYSTYPE(ptr noundef %18, i32 noundef %19, ptr noundef %20)
  %21 = load ptr, ptr %4, align 8, !tbaa !34
  %22 = call i32 (ptr, ptr, ...) @fprintf(ptr noundef %21, ptr noundef @.str.42) #3
  ret void
}

; Function Attrs: mustprogress uwtable
define internal void @_ZL15yy_reduce_printPhP22RTLIL_FRONTEND_YYSTYPEi(ptr noundef %0, ptr noundef %1, i32 noundef %2) #6 {
  %4 = alloca ptr, align 8
  %5 = alloca ptr, align 8
  %6 = alloca i32, align 4
  %7 = alloca i32, align 4
  %8 = alloca i32, align 4
  %9 = alloca i32, align 4
  store ptr %0, ptr %4, align 8, !tbaa !28
  store ptr %1, ptr %5, align 8, !tbaa !30
  store i32 %2, ptr %6, align 4, !tbaa !24
  call void @llvm.lifetime.start.p0(i64 4, ptr %7) #3
  %10 = load i32, ptr %6, align 4, !tbaa !24
  %11 = sext i32 %10 to i64
  %12 = getelementptr inbounds [98 x i16], ptr @_ZL7yyrline, i64 0, i64 %11
  %13 = load i16, ptr %12, align 2, !tbaa !39
  %14 = sext i16 %13 to i32
  store i32 %14, ptr %7, align 4, !tbaa !24
  call void @llvm.lifetime.start.p0(i64 4, ptr %8) #3
  %15 = load i32, ptr %6, align 4, !tbaa !24
  %16 = sext i32 %15 to i64
  %17 = getelementptr inbounds [98 x i8], ptr @_ZL4yyr2, i64 0, i64 %16
  %18 = load i8, ptr %17, align 1, !tbaa !36
  %19 = sext i8 %18 to i32
  store i32 %19, ptr %8, align 4, !tbaa !24
  call void @llvm.lifetime.start.p0(i64 4, ptr %9) #3
  %20 = load ptr, ptr @stderr, align 8, !tbaa !34
  %21 = load i32, ptr %6, align 4, !tbaa !24
  %22 = sub nsw i32 %21, 1
  %23 = load i32, ptr %7, align 4, !tbaa !24
  %24 = call i32 (ptr, ptr, ...) @fprintf(ptr noundef %20, ptr noundef @.str.137, i32 noundef %22, i32 noundef %23) #3
  store i32 0, ptr %9, align 4, !tbaa !24
  br label %25

25:                                               ; preds = %57, %3
  %26 = load i32, ptr %9, align 4, !tbaa !24
  %27 = load i32, ptr %8, align 4, !tbaa !24
  %28 = icmp slt i32 %26, %27
  br i1 %28, label %29, label %60

29:                                               ; preds = %25
  %30 = load ptr, ptr @stderr, align 8, !tbaa !34
  %31 = load i32, ptr %9, align 4, !tbaa !24
  %32 = add nsw i32 %31, 1
  %33 = call i32 (ptr, ptr, ...) @fprintf(ptr noundef %30, ptr noundef @.str.138, i32 noundef %32) #3
  %34 = load ptr, ptr @stderr, align 8, !tbaa !34
  %35 = load ptr, ptr %4, align 8, !tbaa !28
  %36 = load i32, ptr %9, align 4, !tbaa !24
  %37 = add nsw i32 %36, 1
  %38 = load i32, ptr %8, align 4, !tbaa !24
  %39 = sub nsw i32 %37, %38
  %40 = sext i32 %39 to i64
  %41 = getelementptr inbounds i8, ptr %35, i64 %40
  %42 = load i8, ptr %41, align 1, !tbaa !36
  %43 = zext i8 %42 to i32
  %44 = sext i32 %43 to i64
  %45 = getelementptr inbounds [181 x i8], ptr @_ZL6yystos, i64 0, i64 %44
  %46 = load i8, ptr %45, align 1, !tbaa !36
  %47 = sext i8 %46 to i32
  %48 = load ptr, ptr %5, align 8, !tbaa !30
  %49 = load i32, ptr %9, align 4, !tbaa !24
  %50 = add nsw i32 %49, 1
  %51 = load i32, ptr %8, align 4, !tbaa !24
  %52 = sub nsw i32 %50, %51
  %53 = sext i32 %52 to i64
  %54 = getelementptr inbounds %union.RTLIL_FRONTEND_YYSTYPE, ptr %48, i64 %53
  call void @_ZL15yy_symbol_printP8_IO_FILE15yysymbol_kind_tPK22RTLIL_FRONTEND_YYSTYPE(ptr noundef %34, i32 noundef %47, ptr noundef %54)
  %55 = load ptr, ptr @stderr, align 8, !tbaa !34
  %56 = call i32 (ptr, ptr, ...) @fprintf(ptr noundef %55, ptr noundef @.str.10) #3
  br label %57

57:                                               ; preds = %29
  %58 = load i32, ptr %9, align 4, !tbaa !24
  %59 = add nsw i32 %58, 1
  store i32 %59, ptr %9, align 4, !tbaa !24
  br label %25, !llvm.loop !132

60:                                               ; preds = %25
  call void @llvm.lifetime.end.p0(i64 4, ptr %9) #3
  call void @llvm.lifetime.end.p0(i64 4, ptr %8) #3
  call void @llvm.lifetime.end.p0(i64 4, ptr %7) #3
  ret void
}