; Function Attrs: cold mustprogress nofree nounwind uwtable
define internal fastcc void @_ZL15yy_reduce_printPhP22RTLIL_FRONTEND_YYSTYPEi(ptr noundef nonnull readonly captures(none) %0, i32 noundef range(i32 -128, 32769) %1) unnamed_addr #8 {
  %3 = sext i32 %1 to i64
  %4 = getelementptr inbounds [98 x i16], ptr @_ZL7yyrline, i64 0, i64 %3
  %5 = load i16, ptr %4, align 2, !tbaa !40
  %6 = sext i16 %5 to i32
  %7 = getelementptr inbounds [98 x i8], ptr @_ZL4yyr2, i64 0, i64 %3
  %8 = load i8, ptr %7, align 1, !tbaa !39
  %9 = load ptr, ptr @stderr, align 8, !tbaa !37
  %10 = add nsw i32 %1, -1
  %11 = tail call i32 (ptr, ptr, ...) @fprintf(ptr noundef %9, ptr noundef nonnull @.str.137, i32 noundef %10, i32 noundef %6) #32
  %12 = icmp sgt i8 %8, 0
  br i1 %12, label %.lr.ph.preheader, label %._crit_edge

.lr.ph.preheader:                                 ; preds = %2
  %13 = zext nneg i8 %8 to i64
  %wide.trip.count = zext nneg i8 %8 to i64
  br label %.lr.ph

.lr.ph:                                           ; preds = %.lr.ph.preheader, %.lr.ph
  %indvars.iv = phi i64 [ 0, %.lr.ph.preheader ], [ %indvars.iv.next, %.lr.ph ]
  %14 = load ptr, ptr @stderr, align 8, !tbaa !37
  %indvars.iv.next = add nuw nsw i64 %indvars.iv, 1
  %15 = trunc nuw nsw i64 %indvars.iv.next to i32
  %16 = tail call i32 (ptr, ptr, ...) @fprintf(ptr noundef %14, ptr noundef nonnull @.str.138, i32 noundef %15) #32
  %17 = load ptr, ptr @stderr, align 8, !tbaa !37
  %18 = sub nsw i64 %indvars.iv.next, %13
  %19 = getelementptr inbounds i8, ptr %0, i64 %18
  %20 = load i8, ptr %19, align 1, !tbaa !39
  %21 = zext i8 %20 to i64
  %22 = getelementptr inbounds nuw [181 x i8], ptr @_ZL6yystos, i64 0, i64 %21
  %23 = load i8, ptr %22, align 1, !tbaa !39
  %24 = icmp slt i8 %23, 48
  %.str.40..str.41.i = select i1 %24, ptr @.str.40, ptr @.str.41
  %25 = sext i8 %23 to i64
  %26 = getelementptr inbounds [95 x ptr], ptr @_ZL7yytname, i64 0, i64 %25
  %27 = load ptr, ptr %26, align 8, !tbaa !42
  %28 = tail call i32 (ptr, ptr, ...) @fprintf(ptr noundef %17, ptr noundef nonnull @.str.39, ptr noundef nonnull %.str.40..str.41.i, ptr noundef %27) #32
  %fputc.i = tail call i32 @fputc(i32 41, ptr %17)
  %29 = load ptr, ptr @stderr, align 8, !tbaa !37
  %fputc = tail call i32 @fputc(i32 10, ptr %29)
  %exitcond.not = icmp eq i64 %indvars.iv.next, %wide.trip.count
  br i1 %exitcond.not, label %._crit_edge, label %.lr.ph, !llvm.loop !201

._crit_edge:                                      ; preds = %.lr.ph, %2
  ret void
}